target datalayout = "e-m:e-p270:32:32-p271:32:32-p272:64:64-i64:64-i128:128-f80:128-n8:16:32:64-S128"
target triple = "x86_64-pc-linux-gnu"

%struct._Py_DebugOffsets = type { [8 x i8], i64, i64, %struct._runtime_state, %struct._interpreter_state, %struct._thread_state, %struct._interpreter_frame, %struct._code_object, %struct._pyobject, %struct._type_object, %struct._tuple_object, %struct._list_object, %struct._set_object, %struct._dict_object, %struct._float_object, %struct._long_object, %struct._bytes_object, %struct._unicode_object, %struct._gc, %struct._gen_object }
%struct._runtime_state = type { i64, i64, i64 }
%struct._interpreter_state = type { i64, i64, i64, i64, i64, i64, i64, i64, i64, i64, i64, i64, i64 }
%struct._thread_state = type { i64, i64, i64, i64, i64, i64, i64, i64, i64 }
%struct._interpreter_frame = type { i64, i64, i64, i64, i64, i64, i64 }
%struct._code_object = type { i64, i64, i64, i64, i64, i64, i64, i64, i64, i64 }
%struct._pyobject = type { i64, i64 }
%struct._type_object = type { i64, i64, i64, i64 }
%struct._tuple_object = type { i64, i64, i64 }
%struct._list_object = type { i64, i64, i64 }
%struct._set_object = type { i64, i64, i64, i64 }
%struct._dict_object = type { i64, i64, i64 }
%struct._float_object = type { i64, i64 }
%struct._long_object = type { i64, i64, i64 }
%struct._bytes_object = type { i64, i64, i64 }
%struct._unicode_object = type { i64, i64, i64, i64 }
%struct._gc = type { i64, i64 }
%struct._gen_object = type { i64, i64, i64, i64 }
%struct.iovec = type { ptr, i64 }

@PyExc_OSError = external global ptr, align 8
@PyExc_RuntimeError = external global ptr, align 8
@.str.16 = private unnamed_addr constant [27 x i8] c"No interpreter state found\00", align 1

; Function Attrs: inlinehint nounwind uwtable
define internal i32 @read_ptr(i32 noundef %0, i64 noundef %1, ptr noundef %2) #6 {
  %4 = alloca i32, align 4
  %5 = alloca i32, align 4
  %6 = alloca i64, align 8
  %7 = alloca ptr, align 8
  %8 = alloca i32, align 4
  %9 = alloca i32, align 4
  store i32 %0, ptr %5, align 4, !tbaa !8
  store i64 %1, ptr %6, align 8, !tbaa !11
  store ptr %2, ptr %7, align 8, !tbaa !39
  call void @llvm.lifetime.start.p0(i64 4, ptr %8) #7
  %10 = load i32, ptr %5, align 4, !tbaa !8
  %11 = load i64, ptr %6, align 8, !tbaa !11
  %12 = load ptr, ptr %7, align 8, !tbaa !39
  %13 = call i64 @read_memory(i32 noundef %10, i64 noundef %11, i64 noundef 8, ptr noundef %12)
  %14 = trunc i64 %13 to i32
  store i32 %14, ptr %8, align 4, !tbaa !8
  %15 = load i32, ptr %8, align 4, !tbaa !8
  %16 = icmp slt i32 %15, 0
  br i1 %16, label %17, label %18

17:                                               ; preds = %3
  store i32 -1, ptr %4, align 4
  store i32 1, ptr %9, align 4
  br label %19

18:                                               ; preds = %3
  store i32 0, ptr %4, align 4
  store i32 1, ptr %9, align 4
  br label %19

19:                                               ; preds = %18, %17
  call void @llvm.lifetime.end.p0(i64 4, ptr %8) #7
  %20 = load i32, ptr %4, align 4
  ret i32 %20
}

; Function Attrs: nounwind uwtable
define internal i64 @read_memory(i32 noundef %0, i64 noundef %1, i64 noundef %2, ptr noundef %3) #0 {
  %5 = alloca i64, align 8
  %6 = alloca i32, align 4
  %7 = alloca i64, align 8
  %8 = alloca i64, align 8
  %9 = alloca ptr, align 8
  %10 = alloca i64, align 8
  %11 = alloca [1 x %struct.iovec], align 16
  %12 = alloca [1 x %struct.iovec], align 16
  %13 = alloca i64, align 8
  %14 = alloca i64, align 8
  %15 = alloca i32, align 4
  store i32 %0, ptr %6, align 4, !tbaa !8
  store i64 %1, ptr %7, align 8, !tbaa !11
  store i64 %2, ptr %8, align 8, !tbaa !11
  store ptr %3, ptr %9, align 8, !tbaa !51
  call void @llvm.lifetime.start.p0(i64 8, ptr %10) #7
  store i64 0, ptr %10, align 8, !tbaa !11
  call void @llvm.lifetime.start.p0(i64 16, ptr %11) #7
  call void @llvm.lifetime.start.p0(i64 16, ptr %12) #7
  call void @llvm.lifetime.start.p0(i64 8, ptr %13) #7
  store i64 0, ptr %13, align 8, !tbaa !11
  call void @llvm.lifetime.start.p0(i64 8, ptr %14) #7
  store i64 0, ptr %14, align 8, !tbaa !11
  br label %16

16:                                               ; preds = %51, %4
  %17 = load ptr, ptr %9, align 8, !tbaa !51
  %18 = load i64, ptr %13, align 8, !tbaa !11
  %19 = getelementptr i8, ptr %17, i64 %18
  %20 = getelementptr [1 x %struct.iovec], ptr %11, i64 0, i64 0
  %21 = getelementptr inbounds nuw %struct.iovec, ptr %20, i32 0, i32 0
  store ptr %19, ptr %21, align 16, !tbaa !75
  %22 = load i64, ptr %8, align 8, !tbaa !11
  %23 = load i64, ptr %13, align 8, !tbaa !11
  %24 = sub i64 %22, %23
  %25 = getelementptr [1 x %struct.iovec], ptr %11, i64 0, i64 0
  %26 = getelementptr inbounds nuw %struct.iovec, ptr %25, i32 0, i32 1
  store i64 %24, ptr %26, align 8, !tbaa !77
  %27 = load i64, ptr %7, align 8, !tbaa !11
  %28 = load i64, ptr %13, align 8, !tbaa !11
  %29 = add i64 %27, %28
  %30 = inttoptr i64 %29 to ptr
  %31 = getelementptr [1 x %struct.iovec], ptr %12, i64 0, i64 0
  %32 = getelementptr inbounds nuw %struct.iovec, ptr %31, i32 0, i32 0
  store ptr %30, ptr %32, align 16, !tbaa !75
  %33 = load i64, ptr %8, align 8, !tbaa !11
  %34 = load i64, ptr %13, align 8, !tbaa !11
  %35 = sub i64 %33, %34
  %36 = getelementptr [1 x %struct.iovec], ptr %12, i64 0, i64 0
  %37 = getelementptr inbounds nuw %struct.iovec, ptr %36, i32 0, i32 1
  store i64 %35, ptr %37, align 8, !tbaa !77
  %38 = load i32, ptr %6, align 4, !tbaa !8
  %39 = getelementptr inbounds [1 x %struct.iovec], ptr %11, i64 0, i64 0
  %40 = getelementptr inbounds [1 x %struct.iovec], ptr %12, i64 0, i64 0
  %41 = call i64 @process_vm_readv(i32 noundef %38, ptr noundef %39, i64 noundef 1, ptr noundef %40, i64 noundef 1, i64 noundef 0) #7
  store i64 %41, ptr %14, align 8, !tbaa !11
  %42 = load i64, ptr %14, align 8, !tbaa !11
  %43 = icmp slt i64 %42, 0
  br i1 %43, label %44, label %47

44:                                               ; preds = %16
  %45 = load ptr, ptr @PyExc_OSError, align 8, !tbaa !3
  %46 = call ptr @PyErr_SetFromErrno(ptr noundef %45)
  store i64 -1, ptr %5, align 8
  store i32 1, ptr %15, align 4
  br label %60

47:                                               ; preds = %16
  %48 = load i64, ptr %14, align 8, !tbaa !11
  %49 = load i64, ptr %13, align 8, !tbaa !11
  %50 = add i64 %49, %48
  store i64 %50, ptr %13, align 8, !tbaa !11
  br label %51

51:                                               ; preds = %47
  %52 = load i64, ptr %14, align 8, !tbaa !11
  %53 = getelementptr [1 x %struct.iovec], ptr %11, i64 0, i64 0
  %54 = getelementptr inbounds nuw %struct.iovec, ptr %53, i32 0, i32 1
  %55 = load i64, ptr %54, align 8, !tbaa !77
  %56 = icmp ne i64 %52, %55
  br i1 %56, label %16, label %57, !llvm.loop !78

57:                                               ; preds = %51
  %58 = load i64, ptr %13, align 8, !tbaa !11
  store i64 %58, ptr %10, align 8, !tbaa !11
  %59 = load i64, ptr %10, align 8, !tbaa !11
  store i64 %59, ptr %5, align 8
  store i32 1, ptr %15, align 4
  br label %60

60:                                               ; preds = %57, %44
  call void @llvm.lifetime.end.p0(i64 8, ptr %14) #7
  call void @llvm.lifetime.end.p0(i64 8, ptr %13) #7
  call void @llvm.lifetime.end.p0(i64 16, ptr %12) #7
  call void @llvm.lifetime.end.p0(i64 16, ptr %11) #7
  call void @llvm.lifetime.end.p0(i64 8, ptr %10) #7
  %61 = load i64, ptr %5, align 8
  ret i64 %61
}

; Function Attrs: nounwind uwtable
define internal i32 @find_running_frame(i32 noundef %0, i64 noundef %1, ptr noundef %2, ptr noundef %3) #0 {
  %5 = alloca i32, align 4
  %6 = alloca i32, align 4
  %7 = alloca i64, align 8
  %8 = alloca ptr, align 8
  %9 = alloca ptr, align 8
  %10 = alloca i64, align 8
  %11 = alloca i64, align 8
  %12 = alloca i32, align 4
  %13 = alloca i32, align 4
  %14 = alloca i64, align 8
  %15 = alloca i32, align 4
  store i32 %0, ptr %6, align 4, !tbaa !8
  store i64 %1, ptr %7, align 8, !tbaa !11
  store ptr %2, ptr %8, align 8, !tbaa !41
  store ptr %3, ptr %9, align 8, !tbaa !39
  call void @llvm.lifetime.start.p0(i64 8, ptr %10) #7
  %16 = load ptr, ptr %8, align 8, !tbaa !41
  %17 = getelementptr inbounds nuw %struct._Py_DebugOffsets, ptr %16, i32 0, i32 3
  %18 = getelementptr inbounds nuw %struct._runtime_state, ptr %17, i32 0, i32 2
  %19 = load i64, ptr %18, align 8, !tbaa !43
  store i64 %19, ptr %10, align 8, !tbaa !11
  call void @llvm.lifetime.start.p0(i64 8, ptr %11) #7
  call void @llvm.lifetime.start.p0(i64 4, ptr %12) #7
  %20 = load i32, ptr %6, align 4, !tbaa !8
  %21 = load i64, ptr %7, align 8, !tbaa !11
  %22 = load i64, ptr %10, align 8, !tbaa !11
  %23 = add i64 %21, %22
  %24 = call i64 @read_memory(i32 noundef %20, i64 noundef %23, i64 noundef 8, ptr noundef %11)
  %25 = trunc i64 %24 to i32
  store i32 %25, ptr %12, align 4, !tbaa !8
  %26 = load i32, ptr %12, align 4, !tbaa !8
  %27 = icmp slt i32 %26, 0
  br i1 %27, label %28, label %29

28:                                               ; preds = %4
  store i32 -1, ptr %5, align 4
  store i32 1, ptr %13, align 4
  br label %69

29:                                               ; preds = %4
  %30 = load i64, ptr %11, align 8, !tbaa !11
  %31 = icmp eq i64 %30, 0
  br i1 %31, label %32, label %34

32:                                               ; preds = %29
  %33 = load ptr, ptr @PyExc_RuntimeError, align 8, !tbaa !3
  call void @PyErr_SetString(ptr noundef %33, ptr noundef @.str.16)
  store i32 -1, ptr %5, align 4
  store i32 1, ptr %13, align 4
  br label %69

34:                                               ; preds = %29
  call void @llvm.lifetime.start.p0(i64 8, ptr %14) #7
  %35 = load i32, ptr %6, align 4, !tbaa !8
  %36 = load i64, ptr %11, align 8, !tbaa !11
  %37 = load ptr, ptr %8, align 8, !tbaa !41
  %38 = getelementptr inbounds nuw %struct._Py_DebugOffsets, ptr %37, i32 0, i32 4
  %39 = getelementptr inbounds nuw %struct._interpreter_state, ptr %38, i32 0, i32 3
  %40 = load i64, ptr %39, align 8, !tbaa !44
  %41 = add i64 %36, %40
  %42 = call i64 @read_memory(i32 noundef %35, i64 noundef %41, i64 noundef 8, ptr noundef %14)
  %43 = trunc i64 %42 to i32
  store i32 %43, ptr %12, align 4, !tbaa !8
  %44 = load i32, ptr %12, align 4, !tbaa !8
  %45 = icmp slt i32 %44, 0
  br i1 %45, label %46, label %47

46:                                               ; preds = %34
  store i32 -1, ptr %5, align 4
  store i32 1, ptr %13, align 4
  br label %68

47:                                               ; preds = %34
  %48 = load i64, ptr %14, align 8, !tbaa !11
  %49 = inttoptr i64 %48 to ptr
  %50 = icmp ne ptr %49, null
  br i1 %50, label %51, label %66

51:                                               ; preds = %47
  call void @llvm.lifetime.start.p0(i64 4, ptr %15) #7
  %52 = load i32, ptr %6, align 4, !tbaa !8
  %53 = load i64, ptr %14, align 8, !tbaa !11
  %54 = load ptr, ptr %8, align 8, !tbaa !41
  %55 = getelementptr inbounds nuw %struct._Py_DebugOffsets, ptr %54, i32 0, i32 5
  %56 = getelementptr inbounds nuw %struct._thread_state, ptr %55, i32 0, i32 4
  %57 = load i64, ptr %56, align 8, !tbaa !45
  %58 = add i64 %53, %57
  %59 = load ptr, ptr %9, align 8, !tbaa !39
  %60 = call i32 @read_ptr(i32 noundef %52, i64 noundef %58, ptr noundef %59)
  store i32 %60, ptr %15, align 4, !tbaa !8
  %61 = load i32, ptr %15, align 4, !tbaa !8
  %62 = icmp ne i32 %61, 0
  br i1 %62, label %63, label %64

63:                                               ; preds = %51
  store i32 -1, ptr %5, align 4
  store i32 1, ptr %13, align 4
  br label %65

64:                                               ; preds = %51
  store i32 0, ptr %5, align 4
  store i32 1, ptr %13, align 4
  br label %65

65:                                               ; preds = %64, %63
  call void @llvm.lifetime.end.p0(i64 4, ptr %15) #7
  br label %68

66:                                               ; preds = %47
  %67 = load ptr, ptr %9, align 8, !tbaa !39
  store i64 0, ptr %67, align 8, !tbaa !11
  store i32 0, ptr %5, align 4
  store i32 1, ptr %13, align 4
  br label %68

68:                                               ; preds = %66, %65, %46
  call void @llvm.lifetime.end.p0(i64 8, ptr %14) #7
  br label %69

69:                                               ; preds = %68, %32, %28
  call void @llvm.lifetime.end.p0(i64 4, ptr %12) #7
  call void @llvm.lifetime.end.p0(i64 8, ptr %11) #7
  call void @llvm.lifetime.end.p0(i64 8, ptr %10) #7
  %70 = load i32, ptr %5, align 4
  ret i32 %70
}