; Function Attrs: nounwind uwtable
define internal fastcc range(i32 -1, 1) i32 @find_running_frame(i32 noundef %0, i64 noundef %1, ptr noundef nonnull readonly captures(none) %2, ptr noundef nonnull %3) unnamed_addr #0 {
  %5 = alloca [1 x %struct.iovec], align 16
  %6 = alloca [1 x %struct.iovec], align 16
  %7 = alloca [1 x %struct.iovec], align 16
  %8 = alloca [1 x %struct.iovec], align 16
  %9 = alloca [1 x %struct.iovec], align 16
  %10 = alloca [1 x %struct.iovec], align 16
  %11 = alloca i64, align 8
  %12 = alloca i64, align 8
  %13 = getelementptr inbounds nuw i8, ptr %2, i64 40
  %14 = load i64, ptr %13, align 8, !tbaa !47
  call void @llvm.lifetime.start.p0(i64 8, ptr nonnull %11) #9
  %15 = add i64 %14, %1
  call void @llvm.lifetime.start.p0(i64 16, ptr nonnull %9) #9
  call void @llvm.lifetime.start.p0(i64 16, ptr nonnull %10) #9
  %16 = getelementptr inbounds nuw i8, ptr %9, i64 8
  %17 = getelementptr inbounds nuw i8, ptr %10, i64 8
  br label %18

18:                                               ; preds = %27, %4
  %.0.i = phi i64 [ 0, %4 ], [ %28, %27 ]
  %19 = getelementptr i8, ptr %11, i64 %.0.i
  store ptr %19, ptr %9, align 16, !tbaa !29
  %20 = sub i64 8, %.0.i
  store i64 %20, ptr %16, align 8, !tbaa !32
  %21 = add i64 %15, %.0.i
  %22 = inttoptr i64 %21 to ptr
  store ptr %22, ptr %10, align 16, !tbaa !29
  store i64 %20, ptr %17, align 8, !tbaa !32
  %23 = call i64 @process_vm_readv(i32 noundef %0, ptr noundef nonnull %9, i64 noundef 1, ptr noundef nonnull %10, i64 noundef 1, i64 noundef 0) #9
  %24 = icmp slt i64 %23, 0
  br i1 %24, label %read_memory.exit.thread, label %27

read_memory.exit.thread:                          ; preds = %18
  %25 = load ptr, ptr @PyExc_OSError, align 8, !tbaa !33
  %26 = call ptr @PyErr_SetFromErrno(ptr noundef %25) #9
  call void @llvm.lifetime.end.p0(i64 16, ptr nonnull %10) #9
  call void @llvm.lifetime.end.p0(i64 16, ptr nonnull %9) #9
  br label %77

27:                                               ; preds = %18
  %28 = add i64 %23, %.0.i
  %29 = load i64, ptr %16, align 8, !tbaa !32
  %.not.i = icmp eq i64 %23, %29
  br i1 %.not.i, label %read_memory.exit, label %18, !llvm.loop !35

read_memory.exit:                                 ; preds = %27
  call void @llvm.lifetime.end.p0(i64 16, ptr nonnull %10) #9
  call void @llvm.lifetime.end.p0(i64 16, ptr nonnull %9) #9
  %30 = and i64 %28, 2147483648
  %.not = icmp eq i64 %30, 0
  br i1 %.not, label %31, label %77

31:                                               ; preds = %read_memory.exit
  %32 = load i64, ptr %11, align 8, !tbaa !8
  %33 = icmp eq i64 %32, 0
  br i1 %33, label %34, label %36

34:                                               ; preds = %31
  %35 = load ptr, ptr @PyExc_RuntimeError, align 8, !tbaa !33
  call void @PyErr_SetString(ptr noundef %35, ptr noundef nonnull @.str.16) #9
  br label %77

36:                                               ; preds = %31
  call void @llvm.lifetime.start.p0(i64 8, ptr nonnull %12) #9
  %37 = getelementptr inbounds nuw i8, ptr %2, i64 72
  %38 = load i64, ptr %37, align 8, !tbaa !48
  %39 = add i64 %38, %32
  call void @llvm.lifetime.start.p0(i64 16, ptr nonnull %7) #9
  call void @llvm.lifetime.start.p0(i64 16, ptr nonnull %8) #9
  %40 = getelementptr inbounds nuw i8, ptr %7, i64 8
  %41 = getelementptr inbounds nuw i8, ptr %8, i64 8
  br label %42

42:                                               ; preds = %51, %36
  %.0.i16 = phi i64 [ 0, %36 ], [ %52, %51 ]
  %43 = getelementptr i8, ptr %12, i64 %.0.i16
  store ptr %43, ptr %7, align 16, !tbaa !29
  %44 = sub i64 8, %.0.i16
  store i64 %44, ptr %40, align 8, !tbaa !32
  %45 = add i64 %39, %.0.i16
  %46 = inttoptr i64 %45 to ptr
  store ptr %46, ptr %8, align 16, !tbaa !29
  store i64 %44, ptr %41, align 8, !tbaa !32
  %47 = call i64 @process_vm_readv(i32 noundef %0, ptr noundef nonnull %7, i64 noundef 1, ptr noundef nonnull %8, i64 noundef 1, i64 noundef 0) #9
  %48 = icmp slt i64 %47, 0
  br i1 %48, label %read_memory.exit19.thread, label %51

read_memory.exit19.thread:                        ; preds = %42
  %49 = load ptr, ptr @PyExc_OSError, align 8, !tbaa !33
  %50 = call ptr @PyErr_SetFromErrno(ptr noundef %49) #9
  call void @llvm.lifetime.end.p0(i64 16, ptr nonnull %8) #9
  call void @llvm.lifetime.end.p0(i64 16, ptr nonnull %7) #9
  br label %76

51:                                               ; preds = %42
  %52 = add i64 %47, %.0.i16
  %53 = load i64, ptr %40, align 8, !tbaa !32
  %.not.i17 = icmp eq i64 %47, %53
  br i1 %.not.i17, label %read_memory.exit19, label %42, !llvm.loop !35

read_memory.exit19:                               ; preds = %51
  call void @llvm.lifetime.end.p0(i64 16, ptr nonnull %8) #9
  call void @llvm.lifetime.end.p0(i64 16, ptr nonnull %7) #9
  %54 = and i64 %52, 2147483648
  %.not13 = icmp eq i64 %54, 0
  br i1 %.not13, label %55, label %76

55:                                               ; preds = %read_memory.exit19
  %56 = load i64, ptr %12, align 8, !tbaa !8
  %.not14 = icmp eq i64 %56, 0
  br i1 %.not14, label %75, label %57

57:                                               ; preds = %55
  %58 = getelementptr inbounds nuw i8, ptr %2, i64 184
  %59 = load i64, ptr %58, align 8, !tbaa !49
  %60 = add i64 %59, %56
  call void @llvm.lifetime.start.p0(i64 16, ptr nonnull %5) #9
  call void @llvm.lifetime.start.p0(i64 16, ptr nonnull %6) #9
  %61 = getelementptr inbounds nuw i8, ptr %5, i64 8
  %62 = getelementptr inbounds nuw i8, ptr %6, i64 8
  br label %63

63:                                               ; preds = %72, %57
  %.0.i.i = phi i64 [ 0, %57 ], [ %73, %72 ]
  %64 = getelementptr i8, ptr %3, i64 %.0.i.i
  store ptr %64, ptr %5, align 16, !tbaa !29
  %65 = sub i64 8, %.0.i.i
  store i64 %65, ptr %61, align 8, !tbaa !32
  %66 = add i64 %60, %.0.i.i
  %67 = inttoptr i64 %66 to ptr
  store ptr %67, ptr %6, align 16, !tbaa !29
  store i64 %65, ptr %62, align 8, !tbaa !32
  %68 = call i64 @process_vm_readv(i32 noundef %0, ptr noundef nonnull %5, i64 noundef 1, ptr noundef nonnull %6, i64 noundef 1, i64 noundef 0) #9
  %.fr27 = freeze i64 %68
  %69 = icmp slt i64 %.fr27, 0
  br i1 %69, label %read_ptr.exit.thread, label %72

read_ptr.exit.thread:                             ; preds = %63
  %70 = load ptr, ptr @PyExc_OSError, align 8, !tbaa !33
  %71 = call ptr @PyErr_SetFromErrno(ptr noundef %70) #9
  call void @llvm.lifetime.end.p0(i64 16, ptr nonnull %6) #9
  call void @llvm.lifetime.end.p0(i64 16, ptr nonnull %5) #9
  br label %76

72:                                               ; preds = %63
  %73 = add i64 %.fr27, %.0.i.i
  %74 = load i64, ptr %61, align 8, !tbaa !32
  %.not.i.i = icmp eq i64 %.fr27, %74
  br i1 %.not.i.i, label %read_ptr.exit, label %63, !llvm.loop !35

read_ptr.exit:                                    ; preds = %72
  call void @llvm.lifetime.end.p0(i64 16, ptr nonnull %6) #9
  call void @llvm.lifetime.end.p0(i64 16, ptr nonnull %5) #9
  %.mask = shl i64 %73, 32
  %sext = ashr i64 %.mask, 63
  %spec.select = trunc nsw i64 %sext to i32
  br label %76

75:                                               ; preds = %55
  store i64 0, ptr %3, align 8, !tbaa !8
  br label %76

76:                                               ; preds = %read_ptr.exit, %read_ptr.exit.thread, %read_memory.exit19.thread, %read_memory.exit19, %75
  %.1 = phi i32 [ 0, %75 ], [ -1, %read_memory.exit19 ], [ -1, %read_memory.exit19.thread ], [ -1, %read_ptr.exit.thread ], [ %spec.select, %read_ptr.exit ]
  call void @llvm.lifetime.end.p0(i64 8, ptr nonnull %12) #9
  br label %77

77:                                               ; preds = %read_memory.exit.thread, %read_memory.exit, %76, %34
  %.0 = phi i32 [ -1, %34 ], [ %.1, %76 ], [ -1, %read_memory.exit ], [ -1, %read_memory.exit.thread ]
  call void @llvm.lifetime.end.p0(i64 8, ptr nonnull %11) #9
  ret i32 %.0
}